target datalayout = "e-m:e-p270:32:32-p271:32:32-p272:64:64-i64:64-i128:128-f80:128-n8:16:32:64-S128"
target triple = "x86_64-pc-linux-gnu"

%"class.icu_77::CanonicalIterator" = type { %"class.icu_77::UObject", %"class.icu_77::UnicodeString", i8, ptr, i32, ptr, ptr, i32, %"class.icu_77::UnicodeString", ptr, ptr }
%"class.icu_77::UObject" = type { ptr }
%"class.icu_77::UnicodeString" = type { %"class.icu_77::Replaceable", %"union.icu_77::UnicodeString::StackBufferOrFields" }
%"class.icu_77::Replaceable" = type { %"class.icu_77::UObject" }
%"union.icu_77::UnicodeString::StackBufferOrFields" = type { %struct.anon.0, [32 x i8] }
%struct.anon.0 = type { i16, i32, i32, ptr }

; Function Attrs: mustprogress nounwind uwtable
define void @_ZN6icu_7717CanonicalIterator5resetEv(ptr noundef nonnull align 8 dereferenceable(200) %0) #0 align 2 {
  %2 = alloca ptr, align 8
  %3 = alloca i32, align 4
  store ptr %0, ptr %2, align 8, !tbaa !3
  %4 = load ptr, ptr %2, align 8
  %5 = getelementptr inbounds nuw %"class.icu_77::CanonicalIterator", ptr %4, i32 0, i32 2
  store i8 0, ptr %5, align 8, !tbaa !36
  call void @llvm.lifetime.start.p0(i64 4, ptr %3) #10
  store i32 0, ptr %3, align 4, !tbaa !35
  br label %6

6:                                                ; preds = %18, %1
  %7 = load i32, ptr %3, align 4, !tbaa !35
  %8 = getelementptr inbounds nuw %"class.icu_77::CanonicalIterator", ptr %4, i32 0, i32 7
  %9 = load i32, ptr %8, align 8, !tbaa !27
  %10 = icmp slt i32 %7, %9
  br i1 %10, label %12, label %11

11:                                               ; preds = %6
  call void @llvm.lifetime.end.p0(i64 4, ptr %3) #10
  br label %21

12:                                               ; preds = %6
  %13 = getelementptr inbounds nuw %"class.icu_77::CanonicalIterator", ptr %4, i32 0, i32 6
  %14 = load ptr, ptr %13, align 8, !tbaa !26
  %15 = load i32, ptr %3, align 4, !tbaa !35
  %16 = sext i32 %15 to i64
  %17 = getelementptr inbounds i32, ptr %14, i64 %16
  store i32 0, ptr %17, align 4, !tbaa !35
  br label %18

18:                                               ; preds = %12
  %19 = load i32, ptr %3, align 4, !tbaa !35
  %20 = add nsw i32 %19, 1
  store i32 %20, ptr %3, align 4, !tbaa !35
  br label %6, !llvm.loop !42

21:                                               ; preds = %11
  ret void
}